; Function Attrs: nounwind sspstrong uwtable
define internal noundef i64 @ractor_local_value_set(ptr noundef readonly captures(none) %0, i64 %1, i64 noundef %2, i64 noundef returned %3) #0 {
  %5 = getelementptr i8, ptr %0, i64 48
  %.val = load ptr, ptr %5, align 8, !tbaa !90
  %.not.i = icmp eq ptr %.val, null
  br i1 %.not.i, label %rb_ec_ractor_ptr.exit, label %6

6:                                                ; preds = %4
  %7 = getelementptr inbounds nuw i8, ptr %.val, i64 24
  %8 = load ptr, ptr %7, align 8, !tbaa !57
  br label %rb_ec_ractor_ptr.exit

rb_ec_ractor_ptr.exit:                            ; preds = %4, %6
  %.0.i = phi ptr [ %8, %6 ], [ null, %4 ]
  %9 = tail call i64 @rb_to_symbol(i64 noundef %2) #19
  %10 = tail call i64 @rb_sym2id(i64 noundef %9) #19
  %11 = getelementptr inbounds nuw i8, ptr %.0.i, i64 456
  %12 = load ptr, ptr %11, align 8, !tbaa !219
  %13 = icmp eq ptr %12, null
  br i1 %13, label %14, label %16

14:                                               ; preds = %rb_ec_ractor_ptr.exit
  %15 = tail call ptr @rb_id_table_create(i64 noundef 2) #19
  store ptr %15, ptr %11, align 8, !tbaa !219
  br label %16

16:                                               ; preds = %14, %rb_ec_ractor_ptr.exit
  %.0 = phi ptr [ %15, %14 ], [ %12, %rb_ec_ractor_ptr.exit ]
  %17 = tail call i32 @rb_id_table_insert(ptr noundef %.0, i64 noundef %10, i64 noundef %3) #19
  ret i64 %3
}